target datalayout = "e-m:e-p270:32:32-p271:32:32-p272:64:64-i64:64-i128:128-f80:128-n8:16:32:64-S128"
target triple = "x86_64-pc-linux-gnu"

%"union.grpc_core::(anonymous namespace)::DblUint" = type { double }

@_ZN9grpc_core12_GLOBAL__N_112kStatsTable5E = internal constant [16 x i8] c"\06\06\07\08\09\09\0A\0B\0C\0D\0E\0F\10\11\12\13", align 16
@_ZN9grpc_core12_GLOBAL__N_112kStatsTable4E = internal constant [21 x i32] [i32 0, i32 1, i32 2, i32 3, i32 4, i32 5, i32 7, i32 9, i32 11, i32 14, i32 17, i32 21, i32 25, i32 30, i32 36, i32 43, i32 51, i32 61, i32 72, i32 85, i32 100], align 16

; Function Attrs: mustprogress nounwind uwtable
define noundef i32 @_ZN9grpc_core16Histogram_100_209BucketForEi(i32 noundef %0) #0 align 2 {
  %2 = alloca i32, align 4
  %3 = alloca i32, align 4
  %4 = alloca %"union.grpc_core::(anonymous namespace)::DblUint", align 8
  %5 = alloca i32, align 4
  store i32 %0, ptr %3, align 4, !tbaa !10
  %6 = load i32, ptr %3, align 4, !tbaa !10
  %7 = icmp slt i32 %6, 6
  br i1 %7, label %8, label %14

8:                                                ; preds = %1
  %9 = load i32, ptr %3, align 4, !tbaa !10
  %10 = icmp slt i32 %9, 0
  br i1 %10, label %11, label %12

11:                                               ; preds = %8
  store i32 0, ptr %2, align 4
  br label %40

12:                                               ; preds = %8
  %13 = load i32, ptr %3, align 4, !tbaa !10
  store i32 %13, ptr %2, align 4
  br label %40

14:                                               ; preds = %1
  %15 = load i32, ptr %3, align 4, !tbaa !10
  %16 = icmp slt i32 %15, 81
  br i1 %16, label %17, label %35

17:                                               ; preds = %14
  call void @llvm.lifetime.start.p0(i64 8, ptr %4) #11
  %18 = load i32, ptr %3, align 4, !tbaa !10
  %19 = sitofp i32 %18 to double
  store double %19, ptr %4, align 8, !tbaa !57
  call void @llvm.lifetime.start.p0(i64 4, ptr %5) #11
  %20 = load i64, ptr %4, align 8, !tbaa !57
  %21 = sub i64 %20, 4618441417868443648
  %22 = lshr i64 %21, 50
  %23 = getelementptr inbounds nuw [16 x i8], ptr @_ZN9grpc_core12_GLOBAL__N_112kStatsTable5E, i64 0, i64 %22
  %24 = load i8, ptr %23, align 1, !tbaa !57
  %25 = zext i8 %24 to i32
  store i32 %25, ptr %5, align 4, !tbaa !10
  %26 = load i32, ptr %5, align 4, !tbaa !10
  %27 = load i32, ptr %3, align 4, !tbaa !10
  %28 = load i32, ptr %5, align 4, !tbaa !10
  %29 = sext i32 %28 to i64
  %30 = getelementptr inbounds [21 x i32], ptr @_ZN9grpc_core12_GLOBAL__N_112kStatsTable4E, i64 0, i64 %29
  %31 = load i32, ptr %30, align 4, !tbaa !10
  %32 = icmp slt i32 %27, %31
  %33 = zext i1 %32 to i32
  %34 = sub nsw i32 %26, %33
  store i32 %34, ptr %2, align 4
  call void @llvm.lifetime.end.p0(i64 4, ptr %5) #11
  call void @llvm.lifetime.end.p0(i64 8, ptr %4) #11
  br label %40

35:                                               ; preds = %14
  %36 = load i32, ptr %3, align 4, !tbaa !10
  %37 = icmp slt i32 %36, 85
  br i1 %37, label %38, label %39

38:                                               ; preds = %35
  store i32 18, ptr %2, align 4
  br label %40

39:                                               ; preds = %35
  store i32 19, ptr %2, align 4
  br label %40

40:                                               ; preds = %39, %38, %17, %12, %11
  %41 = load i32, ptr %2, align 4
  ret i32 %41
}